; Function Attrs: mustprogress uwtable
define dso_local void @_ZN15Sample_TileMesh7cleanupEv(ptr nocapture noundef nonnull align 8 dereferenceable(404) %0) local_unnamed_addr #3 align 2 {
  %2 = getelementptr inbounds i8, ptr %0, i64 208
  %3 = load ptr, ptr %2, align 8
  %4 = icmp eq ptr %3, null
  br i1 %4, label %6, label %5

5:                                                ; preds = %1
  tail call void @_ZdaPv(ptr noundef nonnull %3) #13
  br label %6

6:                                                ; preds = %5, %1
  store ptr null, ptr %2, align 8
  %7 = getelementptr inbounds i8, ptr %0, i64 216
  %8 = load ptr, ptr %7, align 8
  tail call void @_Z17rcFreeHeightFieldP13rcHeightfield(ptr noundef %8)
  store ptr null, ptr %7, align 8
  %9 = getelementptr inbounds i8, ptr %0, i64 224
  %10 = load ptr, ptr %9, align 8
  tail call void @_Z24rcFreeCompactHeightfieldP20rcCompactHeightfield(ptr noundef %10)
  store ptr null, ptr %9, align 8
  %11 = getelementptr inbounds i8, ptr %0, i64 232
  %12 = load ptr, ptr %11, align 8
  tail call void @_Z16rcFreeContourSetP12rcContourSet(ptr noundef %12)
  store ptr null, ptr %11, align 8
  %13 = getelementptr inbounds i8, ptr %0, i64 240
  %14 = load ptr, ptr %13, align 8
  tail call void @_Z14rcFreePolyMeshP10rcPolyMesh(ptr noundef %14)
  store ptr null, ptr %13, align 8
  %15 = getelementptr inbounds i8, ptr %0, i64 248
  %16 = load ptr, ptr %15, align 8
  tail call void @_Z20rcFreePolyMeshDetailP16rcPolyMeshDetail(ptr noundef %16)
  store ptr null, ptr %15, align 8
  ret void
}